target datalayout = "e-m:e-p270:32:32-p271:32:32-p272:64:64-i64:64-i128:128-f80:128-n8:16:32:64-S128"
target triple = "x86_64-pc-linux-gnu"

%struct.duplication_key = type { i8, i8, i8, i8 }

; Function Attrs: nounwind uwtable
define internal i32 @epl_duplication_hash(ptr noundef %0) #0 {
  %2 = alloca ptr, align 8
  %3 = alloca ptr, align 8
  %4 = alloca i32, align 4
  store ptr %0, ptr %2, align 8
  %5 = load ptr, ptr %2, align 8
  store ptr %5, ptr %3, align 8
  %6 = load ptr, ptr %3, align 8
  %7 = getelementptr inbounds %struct.duplication_key, ptr %6, i32 0, i32 0
  %8 = load i8, ptr %7, align 1
  %9 = zext i8 %8 to i32
  %10 = shl i32 %9, 24
  %11 = load ptr, ptr %3, align 8
  %12 = getelementptr inbounds %struct.duplication_key, ptr %11, i32 0, i32 1
  %13 = load i8, ptr %12, align 1
  %14 = zext i8 %13 to i32
  %15 = shl i32 %14, 16
  %16 = or i32 %10, %15
  %17 = load ptr, ptr %3, align 8
  %18 = getelementptr inbounds %struct.duplication_key, ptr %17, i32 0, i32 3
  %19 = load i8, ptr %18, align 1
  %20 = zext i8 %19 to i32
  %21 = shl i32 %20, 8
  %22 = or i32 %16, %21
  %23 = load ptr, ptr %3, align 8
  %24 = getelementptr inbounds %struct.duplication_key, ptr %23, i32 0, i32 2
  %25 = load i8, ptr %24, align 1
  %26 = zext i8 %25 to i32
  %27 = or i32 %22, %26
  store i32 %27, ptr %4, align 4
  %28 = load i32, ptr %4, align 4
  ret i32 %28
}