; Function Attrs: mustprogress nofree norecurse nosync nounwind willreturn memory(argmem: read) uwtable
define internal i32 @epl_duplication_hash(ptr noundef readonly captures(none) %0) #11 {
  %2 = load i8, ptr %0, align 1
  %3 = zext i8 %2 to i32
  %4 = shl nuw i32 %3, 24
  %5 = getelementptr inbounds nuw i8, ptr %0, i64 1
  %6 = load i8, ptr %5, align 1
  %7 = zext i8 %6 to i32
  %8 = shl nuw nsw i32 %7, 16
  %9 = or disjoint i32 %8, %4
  %10 = getelementptr inbounds nuw i8, ptr %0, i64 3
  %11 = load i8, ptr %10, align 1
  %12 = zext i8 %11 to i32
  %13 = shl nuw nsw i32 %12, 8
  %14 = or disjoint i32 %9, %13
  %15 = getelementptr inbounds nuw i8, ptr %0, i64 2
  %16 = load i8, ptr %15, align 1
  %17 = zext i8 %16 to i32
  %18 = or disjoint i32 %14, %17
  ret i32 %18
}